; Function Attrs: nounwind uwtable
define void @dt_bauhaus_slider_set_soft_min(ptr noundef %0, float noundef %1) local_unnamed_addr #0 {
  %3 = load atomic i64, ptr @dt_bh_get_type.static_g_define_type_id seq_cst, align 8
  %.not.i.i = icmp eq i64 %3, 0
  br i1 %.not.i.i, label %4, label %DT_BAUHAUS_WIDGET.exit

4:                                                ; preds = %2
  %5 = tail call i32 @g_once_init_enter(ptr noundef nonnull @dt_bh_get_type.static_g_define_type_id) #19
  %.not4.i.i = icmp eq i32 %5, 0
  br i1 %.not4.i.i, label %DT_BAUHAUS_WIDGET.exit, label %6

6:                                                ; preds = %4
  %7 = tail call fastcc i64 @dt_bh_get_type_once()
  tail call void @g_once_init_leave(ptr noundef nonnull @dt_bh_get_type.static_g_define_type_id, i64 noundef %7) #19
  br label %DT_BAUHAUS_WIDGET.exit

DT_BAUHAUS_WIDGET.exit:                           ; preds = %2, %4, %6
  %8 = load i64, ptr @dt_bh_get_type.static_g_define_type_id, align 8, !tbaa !6
  %9 = tail call ptr @g_type_check_instance_cast(ptr noundef %0, i64 noundef %8) #19
  %10 = load atomic i64, ptr @dt_bh_get_type.static_g_define_type_id seq_cst, align 8
  %.not.i.i.i = icmp eq i64 %10, 0
  br i1 %.not.i.i.i, label %11, label %DT_BAUHAUS_WIDGET.exit.i

11:                                               ; preds = %DT_BAUHAUS_WIDGET.exit
  %12 = tail call i32 @g_once_init_enter(ptr noundef nonnull @dt_bh_get_type.static_g_define_type_id) #19
  %.not4.i.i.i = icmp eq i32 %12, 0
  br i1 %.not4.i.i.i, label %DT_BAUHAUS_WIDGET.exit.i, label %13

13:                                               ; preds = %11
  %14 = tail call fastcc i64 @dt_bh_get_type_once()
  tail call void @g_once_init_leave(ptr noundef nonnull @dt_bh_get_type.static_g_define_type_id, i64 noundef %14) #19
  br label %DT_BAUHAUS_WIDGET.exit.i

DT_BAUHAUS_WIDGET.exit.i:                         ; preds = %13, %11, %DT_BAUHAUS_WIDGET.exit
  %15 = load i64, ptr @dt_bh_get_type.static_g_define_type_id, align 8, !tbaa !6
  %16 = tail call ptr @g_type_check_instance_cast(ptr noundef %0, i64 noundef %15) #19
  %17 = getelementptr inbounds nuw i8, ptr %16, i64 40
  %18 = load i32, ptr %17, align 8, !tbaa !105
  %.not.i = icmp eq i32 %18, 1
  br i1 %.not.i, label %19, label %dt_bauhaus_slider_get.exit

19:                                               ; preds = %DT_BAUHAUS_WIDGET.exit.i
  %20 = getelementptr inbounds nuw i8, ptr %16, i64 428
  %21 = load float, ptr %20, align 4, !tbaa !120
  %22 = getelementptr inbounds nuw i8, ptr %16, i64 424
  %23 = load float, ptr %22, align 8, !tbaa !121
  %24 = fcmp reassoc nsz arcp contract afn oeq float %21, %23
  br i1 %24, label %dt_bauhaus_slider_get.exit, label %25

25:                                               ; preds = %19
  %26 = getelementptr inbounds nuw i8, ptr %16, i64 408
  %27 = getelementptr inbounds nuw i8, ptr %16, i64 512
  %28 = load ptr, ptr %27, align 8, !tbaa !142
  %29 = load float, ptr %26, align 8, !tbaa !143
  %30 = tail call reassoc nsz arcp contract afn float %28(float noundef %29, i32 noundef 2) #19
  %31 = load float, ptr %22, align 8, !tbaa !121
  %32 = load float, ptr %20, align 4, !tbaa !120
  %33 = fsub reassoc nsz arcp contract afn float %32, %31
  %34 = fmul reassoc nsz arcp contract afn float %33, %30
  %35 = fadd reassoc nsz arcp contract afn float %34, %31
  br label %dt_bauhaus_slider_get.exit

dt_bauhaus_slider_get.exit:                       ; preds = %DT_BAUHAUS_WIDGET.exit.i, %19, %25
  %.0.i = phi nsz float [ -1.000000e+00, %DT_BAUHAUS_WIDGET.exit.i ], [ %35, %25 ], [ %21, %19 ]
  %36 = getelementptr inbounds nuw i8, ptr %9, i64 444
  %37 = load float, ptr %36, align 4, !tbaa !172
  %38 = fcmp reassoc nsz arcp contract afn ogt float %1, %37
  br i1 %38, label %43, label %39

39:                                               ; preds = %dt_bauhaus_slider_get.exit
  %40 = getelementptr inbounds nuw i8, ptr %9, i64 440
  %41 = load float, ptr %40, align 8, !tbaa !170
  %42 = fcmp reassoc nsz arcp contract afn olt float %1, %41
  %. = select reassoc nsz arcp contract afn i1 %42, float %41, float %1
  br label %43

43:                                               ; preds = %39, %dt_bauhaus_slider_get.exit
  %44 = phi reassoc nsz arcp contract afn float [ %37, %dt_bauhaus_slider_get.exit ], [ %., %39 ]
  %45 = getelementptr inbounds nuw i8, ptr %9, i64 432
  store float %44, ptr %45, align 8, !tbaa !171
  %46 = getelementptr inbounds nuw i8, ptr %9, i64 424
  store float %44, ptr %46, align 8, !tbaa !121
  tail call void @dt_bauhaus_slider_set(ptr noundef %0, float noundef %.0.i)
  ret void
}